(dp1
I36866
(lp2
I4
aI1398853074
asI49159
(lp3
I56
aI1398852939
asI44375
(lp4
I596
aI1398853800
asI32782
(lp5
I4
aI1398853107
asI43694
(lp6
I58
aI1398853577
asI57366
(lp7
I10
aI1398853791
asI36887
(lp8
I136
aI1398853509
asI16409
(lp9
I16
aI1398853107
asI327707
(lp10
I34
aI1398853439
asI32796
(lp11
I4
aI1398853107
asI53277
(lp12
I4
aI1398853107
asI51231
(lp13
I8
aI1398853475
asI22561
(lp14
I112
aI1398853691
asI4133
(lp15
I16
aI1398853107
asI132326
(lp16
I58
aI1398853445
asI36904
(lp17
I2
aI1398852953
asI10288
(lp18
I16
aI1398853107
asI36914
(lp19
I16
aI1398853568
asI36915
(lp20
I82
aI1398853704
asI36917
(lp21
I268
aI1398853800
asI196664
(lp22
I2
aI1398853800
asI55353
(lp23
I40
aI1398853777
asI26682
(lp24
I4
aI1398853106
asI34875
(lp25
I8
aI1398853277
asI36926
(lp26
I2
aI1398853588
asI262216
(lp27
I8
aI1398853474
asI17665
(lp28
I52
aI1398853056
asI41037
(lp29
I4
aI1398853106
asI36943
(lp30
I16
aI1398853106
asI36947
(lp31
I458
aI1398853797
asI57428
(lp32
I70
aI1398853350
asI24661
(lp33
I60
aI1398853686
asI262230
(lp34
I60
aI1398853558
asI39010
(lp35
I4
aI1398852916
asI16483
(lp36
I4
aI1398853107
asI6245
(lp37
I12
aI1398853107
asI34918
(lp38
I540
aI1398853800
asI36967
(lp39
I4
aI1398853074
asI24683
(lp40
I240
aI1398853777
asI16494
(lp41
I8
aI1398853107
asI51313
(lp42
I4
aI1398853266
asI45170
(lp43
I10
aI1398853655
asI36989
(lp44
I1874
aI1398853748
asI57474
(lp45
I8
aI1398853787
asI17771
(lp46
I32
aI1398853396
asI393348
(lp47
I20
aI1398853746
asI55430
(lp48
I16
aI1398853226
asI137
(lp49
I2
aI1398853013
asI196747
(lp50
I52
aI1398853316
asI28812
(lp51
I62
aI1398853036
asI51341
(lp52
I364
aI1398853800
asI53391
(lp53
I14
aI1398853776
asI39057
(lp54
I40
aI1398853798
asI53400
(lp55
I4
aI1398853107
asI262297
(lp56
I4
aI1398853562
asI37019
(lp57
I28
aI1398853798
asI37024
(lp58
I122
aI1398853684
asI39074
(lp59
I8
aI1398853787
asI37028
(lp60
I4
aI1398853625
asI52934
(lp61
I264
aI1398853778
asI16551
(lp62
I42
aI1398853085
asI37034
(lp63
I310
aI1398853085
asI34988
(lp64
I4
aI1398853106
asI44401
(lp65
I132
aI1398853670
asI4808
(lp66
I1034
aI1398853750
asI38259
(lp67
I132
aI1398853362
asI20661
(lp68
I10
aI1398853761
asI45769
(lp69
I16
aI1398853437
asI131256
(lp70
I98
aI1398853394
asI57531
(lp71
I42
aI1398853700
asI263514
(lp72
I200
aI1398853658
asI8382
(lp73
I2
aI1398853196
asI47296
(lp74
I4
aI1398853106
asI22780
(lp75
I8
aI1398853107
asI57543
(lp76
I312
aI1398853791
asI28873
(lp77
I80
aI1398853500
asI10445
(lp78
I108
aI1398853716
asI28878
(lp79
I8
aI1398853730
asI51408
(lp80
I4
aI1398853752
asI32977
(lp81
I12
aI1398853107
asI8402
(lp82
I1046
aI1398853800
asI55516
(lp83
I98
aI1398853460
asI14032
(lp84
I64
aI1398853595
asI226
(lp85
I4
aI1398853734
asI59623
(lp86
I48
aI1398853599
asI45095
(lp87
I2
aI1398853444
asI131308
(lp88
I24
aI1398853396
asI57581
(lp89
I6
aI1398853730
asI16625
(lp90
I14152
aI1398853783
asI131317
(lp91
I8
aI1398853396
asI47350
(lp92
I2
aI1398852967
asI196991
(lp93
I166
aI1398853658
asI39164
(lp94
I8
aI1398853106
asI48359
(lp95
I224
aI1398853800
asI61248
(lp96
I72
aI1398853800
asI10497
(lp97
I4
aI1398853107
asI22791
(lp98
I4
aI1398853107
asI14600
(lp99
I12
aI1398853107
asI39178
(lp100
I110
aI1398853537
asI9943
(lp101
I912
aI1398853236
asI20748
(lp102
I38
aI1398853607
asI51469
(lp103
I2
aI1398852927
asI34243
(lp104
I4
aI1398853106
asI196883
(lp105
I14
aI1398853800
asI35093
(lp106
I202
aI1398853223
asI6423
(lp107
I40
aI1398853107
asI49433
(lp108
I2
aI1398853286
asI24863
(lp109
I180
aI1398853771
asI35104
(lp110
I228
aI1398853792
asI196901
(lp111
I22
aI1398853676
asI12586
(lp112
I4
aI1398853295
asI59442
(lp113
I6
aI1398853790
asI49457
(lp114
I2
aI1398853730
asI306
(lp115
I2
aI1398852936
asI6456
(lp116
I16
aI1398853107
asI43323
(lp117
I4
aI1398853106
asI26941
(lp118
I4
aI1398853107
asI133448
(lp119
I56
aI1398853534
asI57673
(lp120
I82
aI1398853800
asI8524
(lp121
I6
aI1398853236
asI39246
(lp122
I376
aI1398853628
asI51535
(lp123
I154
aI1398853010
asI2386
(lp124
I52
aI1398853285
asI14734
(lp125
I18
aI1398853317
asI43350
(lp126
I8
aI1398853106
asI10589
(lp127
I4
aI1398853107
asI58085
(lp128
I362
aI1398853800
asI57696
(lp129
I2
aI1398853731
asI43366
(lp130
I16
aI1398853106
asI55655
(lp131
I136
aI1398853528
asI37228
(lp132
I4
aI1398853445
asI14701
(lp133
I20
aI1398853107
asI12654
(lp134
I72
aI1398853285
asI16753
(lp135
I8
aI1398853107
asI3475
(lp136
I330
aI1398853731
asI6517
(lp137
I80
aI1398853013
asI41334
(lp138
I212
aI1398853792
asI16760
(lp139
I4
aI1398853106
asI8571
(lp140
I890
aI1398853800
asI41342
(lp141
I4
aI1398853106
asI22911
(lp142
I4
aI1398853107
asI50923
(lp143
I52
aI1398853666
asI10633
(lp144
I4
aI1398853106
asI39308
(lp145
I350
aI1398853800
asI41357
(lp146
I12
aI1398853354
asI41358
(lp147
I38
aI1398853254
asI57745
(lp148
I124
aI1398853748
asI55698
(lp149
I78
aI1398853756
asI37267
(lp150
I8
aI1398853800
asI35567
(lp151
I638
aI1398853761
asI12703
(lp152
I28
aI1398853107
asI45474
(lp153
I32
aI1398853308
asI53667
(lp154
I8
aI1398853107
asI18856
(lp155
I4
aI1398853107
asI47535
(lp156
I8
aI1398853588
asI33203
(lp157
I4
aI1398853107
asI31158
(lp158
I622
aI1398853800
asI22969
(lp159
I2
aI1398853100
asI27066
(lp160
I54
aI1398853776
asI27067
(lp161
I2
aI1398853509
asI55740
(lp162
I224
aI1398853392
asI54346
(lp163
I2
aI1398853509
asI20927
(lp164
I50
aI1398853416
asI53696
(lp165
I4
aI1398853107
asI55746
(lp166
I26
aI1398853546
asI38409
(lp167
I4
aI1398853800
asI29125
(lp168
I4
aI1398853770
asI16839
(lp169
I12
aI1398853107
asI10316
(lp170
I32
aI1398853107
asI18890
(lp171
I4
aI1398853107
asI20940
(lp172
I1110
aI1398853475
asI262613
(lp173
I106
aI1398853564
asI45528
(lp174
I144
aI1398853396
asI37340
(lp175
I714
aI1398853517
asI53728
(lp176
I4
aI1398853107
asI51299
(lp177
I48
aI1398853738
asI37348
(lp178
I110
aI1398853414
asI6629
(lp179
I530
aI1398853792
asI55720
(lp180
I32
aI1398853744
asI31220
(lp181
I32
aI1398853106
asI37367
(lp182
I126
aI1398853040
asI23033
(lp183
I68
aI1398853107
asI20223
(lp184
I8
aI1398853107
asI8700
(lp185
I6
aI1398853618
asI23038
(lp186
I8
aI1398853107
asI27137
(lp187
I110
aI1398853088
asI52323
(lp188
I216
aI1398853538
asI10756
(lp189
I4
aI1398853107
asI37381
(lp190
I4
aI1398853679
asI18954
(lp191
I84
aI1398853780
asI45582
(lp192
I192
aI1398853396
asI9304
(lp193
I80
aI1398853595
asI45590
(lp194
I36
aI1398853688
asI18968
(lp195
I50
aI1398853175
asI49691
(lp196
I4
aI1398853134
asI18978
(lp197
I52
aI1398853107
asI37416
(lp198
I70
aI1398853517
asI61995
(lp199
I2
aI1398853475
asI53805
(lp200
I4
aI1398853106
asI18990
(lp201
I18
aI1398853509
asI12850
(lp202
I22
aI1398853498
asI33337
(lp203
I4
aI1398853107
asI36277
(lp204
I4
aI1398853107
asI3851
(lp205
I12
aI1398853107
asI40374
(lp206
I20
aI1398853699
asI31303
(lp207
I6
aI1398853785
asI35401
(lp208
I24
aI1398852910
asI8778
(lp209
I4
aI1398853718
asI37451
(lp210
I468
aI1398853756
asI51788
(lp211
I10
aI1398853800
asI18530
(lp212
I24
aI1398853107
asI45648
(lp213
I6
aI1398853456
asI45650
(lp214
I92
aI1398853662
asI10835
(lp215
I4
aI1398853106
asI53689
(lp216
I4
aI1398853107
asI25184
(lp217
I334
aI1398853746
asI23138
(lp218
I8
aI1398853107
asI37475
(lp219
I84
aI1398853010
asI12049
(lp220
I246
aI1398853606
asI55915
(lp221
I22
aI1398853656
asI49777
(lp222
I236
aI1398853546
asI131717
(lp223
I518
aI1398853756
asI29319
(lp224
I76
aI1398853638
asI23184
(lp225
I16
aI1398853107
asI4755
(lp226
I1548
aI1398853800
asI57454
(lp227
I118
aI1398853800
asI4758
(lp228
I28
aI1398853509
asI27287
(lp229
I50
aI1398853236
asI15003
(lp230
I32
aI1398853107
asI4766
(lp231
I118
aI1398853608
asI17055
(lp232
I4
aI1398853106
asI23203
(lp233
I6
aI1398853467
asI19108
(lp234
I2
aI1398853679
asI4775
(lp235
I280
aI1398853796
asI37544
(lp236
I42
aI1398853085
asI9229
(lp237
I18
aI1398853286
asI44759
(lp238
I2
aI1398853339
asI60785
(lp239
I2
aI1398853730
asI62128
(lp240
I22
aI1398852947
asI62132
(lp241
I92
aI1398853800
asI50292
(lp242
I2
aI1398853416
asI27323
(lp243
I20
aI1398853107
asI701
(lp244
I366
aI1398853793
asI19137
(lp245
I12
aI1398853107
asI4802
(lp246
I282
aI1398853366
asI43718
(lp247
I104
aI1398853194
asI16235
(lp248
I16
aI1398853787
asI13000
(lp249
I42
aI1398853028
asI30065
(lp250
I4
aI1398853107
asI2764
(lp251
I120
aI1398853793
asI45773
(lp252
I52
aI1398853784
asI49872
(lp253
I4
aI1398853347
asI262867
(lp254
I72
aI1398853656
asI12068
(lp255
I4
aI1398853106
asI41691
(lp256
I1076
aI1398853800
asI15070
(lp257
I16
aI1398853107
asI197343
(lp258
I162
aI1398853800
asI58081
(lp259
I32
aI1398853790
asI4837
(lp260
I6762
aI1398853750
asI17129
(lp261
I8
aI1398853107
asI45804
(lp262
I76
aI1398853010
asI6893
(lp263
I4
aI1398853730
asI4847
(lp264
I438
aI1398853798
asI27377
(lp265
I8
aI1398853107
asI23678
(lp266
I34
aI1398853686
asI62198
(lp267
I20
aI1398853790
asI58104
(lp268
I10
aI1398853790
asI45820
(lp269
I248
aI1398853396
asI54014
(lp270
I8
aI1398853107
asI23295
(lp271
I138
aI1398853300
asI61129
(lp272
I6
aI1398853787
asI29452
(lp273
I4
aI1398853106
asI45841
(lp274
I364
aI1398853777
asI33555
(lp275
I4
aI1398853107
asI23317
(lp276
I4
aI1398853107
asI6936
(lp277
I12
aI1398853107
asI33924
(lp278
I170
aI1398853730
asI47898
(lp279
I10
aI1398853722
asI58139
(lp280
I28
aI1398853671
asI11038
(lp281
I12
aI1398853107
asI17184
(lp282
I4
aI1398853106
asI17185
(lp283
I16
aI1398853107
asI52002
(lp284
I40
aI1398853531
asI803
(lp285
I4
aI1398853107
asI41766
(lp286
I2
aI1398853733
asI11054
(lp287
I470
aI1398853800
asI1501
(lp288
I56
aI1398853300
asI4913
(lp289
I8
aI1398853593
asI37686
(lp290
I54
aI1398853516
asI58167
(lp291
I26
aI1398853800
asI13113
(lp292
I4
aI1398853498
asI19259
(lp293
I16
aI1398852920
asI39743
(lp294
I22
aI1398852938
asI12066
(lp295
I44
aI1398853528
asI56132
(lp296
I12
aI1398853107
asI49989
(lp297
I54
aI1398853625
asI16524
(lp298
I4
aI1398853107
asI40418
(lp299
I54
aI1398853416
asI30307
(lp300
I8
aI1398853493
asI852
(lp301
I90
aI1398853657
asI25429
(lp302
I2
aI1398852923
asI9050
(lp303
I2
aI1398853528
asI45916
(lp304
I66
aI1398853076
asI47589
(lp305
I156
aI1398853300
asI23355
(lp306
I4
aI1398853107
asI15206
(lp307
I712
aI1398853636
asI33643
(lp308
I46
aI1398853086
asI263022
(lp309
I2
aI1398853439
asI42473
(lp310
I76
aI1398853778
asI53563
(lp311
I4
aI1398853106
asI199487
(lp312
I2
aI1398853728
asI263041
(lp313
I232
aI1398853670
asI29571
(lp314
I2030
aI1398853770
asI13188
(lp315
I128
aI1398853145
asI58245
(lp316
I4
aI1398853106
asI56204
(lp317
I14
aI1398853656
asI58256
(lp318
I6
aI1398853066
asI25490
(lp319
I206
aI1398853362
asI49404
(lp320
I74
aI1398853239
asI197526
(lp321
I4
aI1398853445
asI48030
(lp322
I2728
aI1398853040
asI263334
(lp323
I52
aI1398853797
asI17315
(lp324
I4
aI1398853107
asI197541
(lp325
I50
aI1398853624
asI11174
(lp326
I12
aI1398853107
asI19368
(lp327
I4
aI1398853107
asI13468
(lp328
I524
aI1398853655
asI62386
(lp329
I236
aI1398853800
asI11189
(lp330
I4
aI1398853107
asI15286
(lp331
I4
aI1398853107
asI60345
(lp332
I242
aI1398853638
asI56256
(lp333
I44
aI1398853174
asI56257
(lp334
I858
aI1398853528
asI54210
(lp335
I4
aI1398853106
asI48068
(lp336
I42
aI1398853679
asI25543
(lp337
I444
aI1398853684
asI31689
(lp338
I8
aI1398853464
asI199627
(lp339
I2
aI1398853728
asI19406
(lp340
I4
aI1398853106
asI33748
(lp341
I148
aI1398853107
asI58326
(lp342
I4
aI1398853731
asI23511
(lp343
I4
aI1398853106
asI17368
(lp344
I656
aI1398853792
asI7131
(lp345
I58
aI1398853626
asI35808
(lp346
I166
aI1398853686
asI46049
(lp347
I4
aI1398853172
asI132066
(lp348
I16
aI1398853670
asI25766
(lp349
I4
aI1398853107
asI39079
(lp350
I4
aI1398853800
asI647
(lp351
I50
aI1398853107
asI7151
(lp352
I8
aI1398853107
asI132080
(lp353
I136
aI1398853036
asI62450
(lp354
I26
aI1398853648
asI15354
(lp355
I16
aI1398853107
asI26453
(lp356
I6
aI1398853233
asI35843
(lp357
I654
aI1398853596
asI48132
(lp358
I28
aI1398853074
asI19461
(lp359
I40
aI1398853107
asI197640
(lp360
I4
aI1398853106
asI26114
(lp361
I4
aI1398853106
asI11279
(lp362
I4
aI1398853106
asI13328
(lp363
I8
aI1398853107
asI53080
(lp364
I32
aI1398853534
asI25091
(lp365
I2
aI1398853736
asI17429
(lp366
I42
aI1398853744
asI17430
(lp367
I42
aI1398853744
asI17431
(lp368
I294
aI1398853750
asI8708
(lp369
I80
aI1398853761
asI48159
(lp370
I8574
aI1398853800
asI3104
(lp371
I8
aI1398853107
asI17447
(lp372
I2
aI1398853236
asI54312
(lp373
I12
aI1398853107
asI13354
(lp374
I72
aI1398853107
asI5639
(lp375
I56
aI1398853718
asI9260
(lp376
I22
aI1398853770
asI11309
(lp377
I12
aI1398853107
asI28509
(lp378
I660
aI1398853688
asI42163
(lp379
I230
aI1398853791
asI60469
(lp380
I92
aI1398853628
asI8151
(lp381
I58
aI1398853509
asI56375
(lp382
I8
aI1398853740
asI17465
(lp383
I2288
aI1398853400
asI54794
(lp384
I106
aI1398853718
asI59573
(lp385
I6
aI1398853791
asI33859
(lp386
I8
aI1398853106
asI46150
(lp387
I4
aI1398853106
asI35914
(lp388
I4
aI1398853107
asI17483
(lp389
I310
aI1398853396
asI27724
(lp390
I538
aI1398853660
asI46160
(lp391
I4
aI1398853107
asI56402
(lp392
I466
aI1398853791
asI28174
(lp393
I28
aI1398853654
asI58456
(lp394
I72
aI1398853509
asI58457
(lp395
I8
aI1398853396
asI9308
(lp396
I88
aI1398853750
asI56503
(lp397
I276
aI1398853800
asI23647
(lp398
I12
aI1398853655
asI46179
(lp399
I8
aI1398853107
asI54373
(lp400
I24
aI1398853246
asI8039
(lp401
I18
aI1398853460
asI38000
(lp402
I108
aI1398853692
asI11377
(lp403
I60
aI1398853106
asI48659
(lp404
I218
aI1398853629
asI38004
(lp405
I4
aI1398853107
asI5237
(lp406
I12
aI1398853632
asI54391
(lp407
I4
aI1398853107
asI13438
(lp408
I16
aI1398853107
asI21632
(lp409
I4
aI1398853107
asI40065
(lp410
I32
aI1398853107
asI23682
(lp411
I86
aI1398853795
asI10091
(lp412
I476
aI1398853716
asI4812
(lp413
I18
aI1398853744
asI54465
(lp414
I268
aI1398853793
asI23688
(lp415
I368
aI1398853056
asI13451
(lp416
I4
aI1398853107
asI11404
(lp417
I12
aI1398853107
asI17557
(lp418
I698
aI1398853791
asI40089
(lp419
I8
aI1398853107
asI40092
(lp420
I8
aI1398853107
asI19653
(lp421
I254
aI1398853246
asI48289
(lp422
I78
aI1398853800
asI36003
(lp423
I4
aI1398853107
asI62630
(lp424
I8
aI1398853106
asI23724
(lp425
I6
aI1398853444
asI9391
(lp426
I28
aI1398853744
asI29873
(lp427
I48
aI1398853107
asI16243
(lp428
I2
aI1398853777
asI48309
(lp429
I712
aI1398853800
asI46263
(lp430
I4
aI1398853107
asI38077
(lp431
I2918
aI1398853456
asI29888
(lp432
I4
aI1398853107
asI11457
(lp433
I18
aI1398853568
asI61962
(lp434
I30
aI1398853800
asI22886
(lp435
I8
aI1398853107
asI23752
(lp436
I3030
aI1398853509
asI13513
(lp437
I44
aI1398853656
asI27851
(lp438
I148
aI1398853500
asI16930
(lp439
I4
aI1398853107
asI21713
(lp440
I4
aI1398853107
asI11476
(lp441
I4
aI1398853107
asI17621
(lp442
I720
aI1398853752
asI17622
(lp443
I628
aI1398853752
asI17623
(lp444
I8412
aI1398853750
asI17625
(lp445
I160
aI1398853085
asI23772
(lp446
I4
aI1398853358
asI8400
(lp447
I12
aI1398853070
asI11494
(lp448
I22
aI1398853236
asI58599
(lp449
I50
aI1398853044
asI44269
(lp450
I38
aI1398853671
asI13551
(lp451
I4
aI1398853107
asI37004
(lp452
I1154
aI1398853518
asI58611
(lp453
I4
aI1398853107
asI36086
(lp454
I4
aI1398853106
asI25847
(lp455
I52
aI1398853107
asI62713
(lp456
I4
aI1398853106
asI132346
(lp457
I6
aI1398853626
asI17660
(lp458
I4
aI1398853107
asI27901
(lp459
I164
aI1398853467
asI285909
(lp460
I378
aI1398853607
asI19713
(lp461
I8
aI1398853107
asI48390
(lp462
I4
aI1398852910
asI56193
(lp463
I2
aI1398853618
asI41152
(lp464
I54
aI1398853788
asI52490
(lp465
I430
aI1398853278
asI54539
(lp466
I22
aI1398853236
asI51074
(lp467
I78
aI1398853800
asI1294
(lp468
I4
aI1398853106
asI132376
(lp469
I186
aI1398853628
asI9498
(lp470
I48
aI1398853004
asI29979
(lp471
I4
aI1398853107
asI3361
(lp472
I4
aI1398853107
asI23844
(lp473
I20
aI1398853750
asI56616
(lp474
I40
aI1398853800
asI15657
(lp475
I124
aI1398853791
asI23853
(lp476
I112
aI1398853744
asI21806
(lp477
I148
aI1398853239
asI198357
(lp478
I288
aI1398853800
asI38197
(lp479
I50
aI1398853430
asI56632
(lp480
I24
aI1398853790
asI23866
(lp481
I6
aI1398853656
asI21827
(lp482
I4
aI1398853107
asI17974
(lp483
I4
aI1398853800
asI58695
(lp484
I48
aI1398853056
asI7497
(lp485
I2
aI1398853596
asI1358
(lp486
I16
aI1398853780
asI133005
(lp487
I28
aI1398853564
asI21840
(lp488
I52
aI1398852978
asI200019
(lp489
I436
aI1398853378
asI36180
(lp490
I20
aI1398853107
asI62807
(lp491
I4
aI1398853106
asI132441
(lp492
I56
aI1398853566
asI17754
(lp493
I108
aI1398853396
asI25949
(lp494
I8
aI1398853107
asI58725
(lp495
I8
aI1398853396
asI55479
(lp496
I76
aI1398853752
asI13673
(lp497
I12
aI1398853107
asI32107
(lp498
I40
aI1398853107
asI32113
(lp499
I4
aI1398853107
asI200051
(lp500
I408
aI1398853746
asI13684
(lp501
I182
aI1398853624
asI17781
(lp502
I28
aI1398853750
asI40317
(lp503
I4
aI1398853107
asI19840
(lp504
I4
aI1398853107
asI23937
(lp505
I8
aI1398853396
asI57579
(lp506
I8
aI1398853746
asI58262
(lp507
I124
aI1398853800
asI21894
(lp508
I4
aI1398853107
asI59628
(lp509
I20
aI1398853790
asI132490
(lp510
I158
aI1398853778
asI58766
(lp511
I8
aI1398853396
asI23951
(lp512
I6
aI1398853750
asI13713
(lp513
I12
aI1398853107
asI13714
(lp514
I4
aI1398853106
asI26003
(lp515
I8
aI1398853107
asI7573
(lp516
I8
aI1398853107
asI7575
(lp517
I156
aI1398853234
asI56728
(lp518
I2
aI1398853730
asI56559
(lp519
I4
aI1398853790
asI13727
(lp520
I278
aI1398853746
asI38307
(lp521
I16
aI1398853107
asI28281
(lp522
I1574
aI1398853783
asI32172
(lp523
I12
aI1398853107
asI5552
(lp524
I4
aI1398853106
asI11166
(lp525
I12
aI1398853107
asI13750
(lp526
I24
aI1398853107
asI202168
(lp527
I90
aI1398853568
asI30139
(lp528
I4
aI1398853106
asI60860
(lp529
I256
aI1398853628
asI9802
(lp530
I28
aI1398853750
asI50625
(lp531
I960
aI1398853800
asI19907
(lp532
I4
aI1398853107
asI9119
(lp533
I4
aI1398853731
asI52682
(lp534
I4
aI1398853618
asI39501
(lp535
I2
aI1398853579
asI24016
(lp536
I24
aI1398853666
asI7637
(lp537
I24
aI1398853107
asI7638
(lp538
I14
aI1398853750
asI21976
(lp539
I8
aI1398853107
asI28580
(lp540
I82
aI1398853791
asI38363
(lp541
I44
aI1398853744
asI24029
(lp542
I38
aI1398853010
asI24485
(lp543
I370
aI1398853716
asI12880
(lp544
I6
aI1398853800
asI46562
(lp545
I60
aI1398853107
asI50661
(lp546
I18
aI1398853122
asI13801
(lp547
I4
aI1398853107
asI4007
(lp548
I24
aI1398853662
asI263664
(lp549
I6
aI1398852959
asI28146
(lp550
I400
aI1398853776
asI9811
(lp551
I16
aI1398853750
asI3573
(lp552
I10
aI1398853700
asI28151
(lp553
I152
aI1398853638
asI17912
(lp554
I4
aI1398853396
asI5716
(lp555
I4
aI1398853107
asI38398
(lp556
I30
aI1398853467
asI48640
(lp557
I24
aI1398853145
asI9730
(lp558
I252
aI1398853800
asI38403
(lp559
I6
aI1398853528
asI56836
(lp560
I68
aI1398853084
asI9814
(lp561
I212
aI1398853750
asI34310
(lp562
I6
aI1398853746
asI13831
(lp563
I8
aI1398853106
asI30217
(lp564
I8
aI1398853608
asI38410
(lp565
I174
aI1398853770
asI24151
(lp566
I6
aI1398853722
asI19982
(lp567
I2
aI1398852910
asI198569
(lp568
I234
aI1398853800
asI5651
(lp569
I16
aI1398853107
asI50710
(lp570
I4
aI1398853106
asI46617
(lp571
I4
aI1398853107
asI17946
(lp572
I240
aI1398853223
asI132642
(lp573
I10
aI1398853618
asI22051
(lp574
I8
aI1398853107
asI48679
(lp575
I8
aI1398853800
asI34344
(lp576
I4
aI1398853106
asI22059
(lp577
I4
aI1398853107
asI17964
(lp578
I76
aI1398853744
asI13869
(lp579
I8
aI1398853107
asI50735
(lp580
I36
aI1398853671
asI28208
(lp581
I192
aI1398853074
asI132658
(lp582
I168
aI1398853509
asI26163
(lp583
I12
aI1398853107
asI20021
(lp584
I48
aI1398853107
asI24535
(lp585
I284
aI1398853528
asI28255
(lp586
I166
aI1398853568
asI44244
(lp587
I370
aI1398853800
asI7752
(lp588
I36
aI1398853107
asI32329
(lp589
I12
aI1398853107
asI54858
(lp590
I4
aI1398853106
asI19043
(lp591
I8
aI1398853107
asI9812
(lp592
I108
aI1398853750
asI36438
(lp593
I4
aI1398853107
asI48057
(lp594
I20
aI1398852964
asI22105
(lp595
I4
aI1398853107
asI40539
(lp596
I12
aI1398853107
asI15964
(lp597
I386
aI1398853085
asI58974
(lp598
I204
aI1398853546
asI42591
(lp599
I2
aI1398853317
asI32354
(lp600
I32
aI1398853107
asI11875
(lp601
I4
aI1398853106
asI9829
(lp602
I10650
aI1398853800
asI13489
(lp603
I502
aI1398853385
asI46699
(lp604
I4
aI1398853106
asI9836
(lp605
I4
aI1398853396
asI132717
(lp606
I16
aI1398853608
asI38513
(lp607
I126
aI1398853174
asI50802
(lp608
I508
aI1398853383
asI44990
(lp609
I4
aI1398853509
asI40569
(lp610
I68
aI1398853085
asI38527
(lp611
I306
aI1398853709
asI38533
(lp612
I2
aI1398853656
asI24202
(lp613
I154
aI1398853174
asI26253
(lp614
I20
aI1398853107
asI52879
(lp615
I10
aI1398853679
asI24212
(lp616
I56
aI1398853174
asI13977
(lp617
I40
aI1398853107
asI132763
(lp618
I32
aI1398853547
asI36508
(lp619
I48
aI1398853107
asI54941
(lp620
I4
aI1398853107
asI28322
(lp621
I20
aI1398853594
asI40612
(lp622
I4
aI1398853107
asI57001
(lp623
I208
aI1398853145
asI11951
(lp624
I8
aI1398853107
asI44724
(lp625
I6
aI1398853136
asI18101
(lp626
I76
aI1398853010
asI22200
(lp627
I152
aI1398853276
asI26299
(lp628
I4
aI1398853106
asI132796
(lp629
I44
aI1398852984
asI262432
(lp630
I60
aI1398853655
asI48836
(lp631
I48
aI1398853791
asI32454
(lp632
I4
aI1398853107
asI46791
(lp633
I16
aI1398853107
asI40649
(lp634
I16
aI1398853107
asI54989
(lp635
I12
aI1398853106
asI61134
(lp636
I4
aI1398853028
asI57039
(lp637
I2
aI1398853486
asI46800
(lp638
I20
aI1398853107
asI29646
(lp639
I38
aI1398853800
asI18135
(lp640
I314
aI1398853716
asI11992
(lp641
I10
aI1398853776
asI3801
(lp642
I40
aI1398853107
asI14042
(lp643
I4
aI1398853106
asI3810
(lp644
I20
aI1398853774
asI12008
(lp645
I20
aI1398853331
asI46825
(lp646
I18
aI1398853236
asI32490
(lp647
I8
aI1398853107
asI26347
(lp648
I16
aI1398853107
asI52972
(lp649
I28
aI1398853568
asI14063
(lp650
I8
aI1398853107
asI5416
(lp651
I80
aI1398853800
asI1785
(lp652
I122
aI1398853776
asI46844
(lp653
I100
aI1398853107
asI57085
(lp654
I38
aI1398853671
asI26367
(lp655
I1538
aI1398853777
asI15695
(lp656
I60
aI1398853586
asI52993
(lp657
I30
aI1398853722
asI35799
(lp658
I4
aI1398853106
asI22284
(lp659
I4
aI1398853649
asI30479
(lp660
I24
aI1398853106
asI32529
(lp661
I2
aI1398853013
asI22290
(lp662
I4
aI1398853106
asI46030
(lp663
I120
aI1398853174
asI18207
(lp664
I584
aI1398853578
asI57596
(lp665
I18
aI1398853247
asI19419
(lp666
I4
aI1398853107
asI59172
(lp667
I4
aI1398853358
asI26405
(lp668
I4
aI1398853106
asI40747
(lp669
I4
aI1398853107
asI46893
(lp670
I12
aI1398853106
asI53040
(lp671
I2558
aI1398853670
asI1842
(lp672
I30
aI1398853292
asI1851
(lp673
I4
aI1398853107
asI14140
(lp674
I4
aI1398853107
asI22333
(lp675
I30
aI1398853246
asI53056
(lp676
I568
aI1398853631
asI5953
(lp677
I32
aI1398853800
asI1221
(lp678
I72
aI1398853800
asI37433
(lp679
I152
aI1398853516
asI40778
(lp680
I4
aI1398853107
asI22354
(lp681
I4
aI1398853783
asI5972
(lp682
I92
aI1398853475
asI10069
(lp683
I12
aI1398853554
asI36696
(lp684
I4
aI1398853106
asI61273
(lp685
I140
aI1398853676
asI53082
(lp686
I64
aI1398853564
asI22363
(lp687
I8
aI1398853107
asI10077
(lp688
I4
aI1398853358
asI24416
(lp689
I22
aI1398853750
asI198498
(lp690
I48
aI1398853691
asI6459
(lp691
I234
aI1398853786
asI46950
(lp692
I4
aI1398853106
asI16231
(lp693
I12
aI1398853338
asI46952
(lp694
I4
aI1398853107
asI51050
(lp695
I2
aI1398853509
asI36715
(lp696
I4
aI1398853106
asI12142
(lp697
I4
aI1398853107
asI26479
(lp698
I40
aI1398853107
asI57201
(lp699
I92
aI1398853761
asI10098
(lp700
I60
aI1398853791
asI10099
(lp701
I76
aI1398853750
asI54744
(lp702
I16
aI1398853107
asI198517
(lp703
I116
aI1398853686
asI10102
(lp704
I2
aI1398853509
asI53111
(lp705
I158
aI1398853630
asI17658
(lp706
I86
aI1398853500
asI40827
(lp707
I4
aI1398853107
asI30589
(lp708
I6
aI1398852955
asI38782
(lp709
I1378
aI1398853396
asI53121
(lp710
I6
aI1398853013
asI132994
(lp711
I124
aI1398853565
asI32645
(lp712
I4
aI1398853107
asI30600
(lp713
I28
aI1398853107
asI198541
(lp714
I110
aI1398853001
asI12175
(lp715
I4
aI1398853107
asI61331
(lp716
I4
aI1398853106
asI46999
(lp717
I6
aI1398853638
asI15343
(lp718
I120
aI1398853655
asI10148
(lp719
I40
aI1398853107
asI14245
(lp720
I32
aI1398853107
asI28582
(lp721
I152
aI1398853684
asI36849
(lp722
I28
aI1398853236
asI38556
(lp723
I396
aI1398853347
asI53163
(lp724
I8
aI1398853800
asI33778
(lp725
I260
aI1398853752
asI61362
(lp726
I32
aI1398853800
asI14259
(lp727
I26
aI1398853679
asI26548
(lp728
I20
aI1398853107
asI38217
(lp729
I4
aI1398853656
asI22843
(lp730
I8
aI1398853107
asI22458
(lp731
I4
aI1398853107
asI26558
(lp732
I4
aI1398853107
asI16322
(lp733
I116
aI1398853800
asI198595
(lp734
I20
aI1398853755
asI55240
(lp735
I4
aI1398853106
asI49100
(lp736
I132
aI1398853800
asI49103
(lp737
I24
aI1398853788
asI16339
(lp738
I12
aI1398853107
asI51158
(lp739
I28
aI1398853638
asI10199
(lp740
I168
aI1398853396
asI18395
(lp741
I26
aI1398853679
asI29690
(lp742
I154
aI1398853686
asI61410
(lp743
I38
aI1398853671
asI133092
(lp744
I2
aI1398853625
asI24550
(lp745
I36
aI1398853486
asI6127
(lp746
I90
aI1398853325
asI53232
(lp747
I60
aI1398853568
asI6129
(lp748
I4
aI1398853107
asI61426
(lp749
I256
aI1398853777
asI27987
(lp750
I382
aI1398853686
asI55286
(lp751
I48
aI1398853647
asI132777
(lp752
I76
aI1398853010
asI26616
(lp753
I384
aI1398853658
asI55290
(lp754
I4
aI1398853107
asI51541
(lp755
I444
aI1398853800
as.