(dp1
I57344
(lp2
I450
aI1398853796
asI36866
(lp3
I24
aI1398853445
asI20485
(lp4
I962
aI1398853800
asI49159
(lp5
I56
aI1398852939
asI62807
(lp6
I8
aI1398853107
asI30733
(lp7
I18
aI1398853247
asI32782
(lp8
I4
aI1398853107
asI36881
(lp9
I8
aI1398853800
asI27006
(lp10
I8
aI1398853107
asI57366
(lp11
I10
aI1398853791
asI36887
(lp12
I136
aI1398853509
asI16409
(lp13
I16
aI1398853107
asI8218
(lp14
I2818
aI1398853750
asI327707
(lp15
I34
aI1398853439
asI32796
(lp16
I4
aI1398853107
asI53277
(lp17
I4
aI1398853107
asI51231
(lp18
I8
aI1398853475
asI62128
(lp19
I22
aI1398852947
asI4133
(lp20
I16
aI1398853107
asI4134
(lp21
I654
aI1398853798
asI132326
(lp22
I58
aI1398853445
asI36904
(lp23
I2
aI1398852953
asI28716
(lp24
I52
aI1398852939
asI25949
(lp25
I8
aI1398853107
asI10288
(lp26
I16
aI1398853107
asI20530
(lp27
I16
aI1398852950
asI36915
(lp28
I82
aI1398853704
asI4809
(lp29
I88
aI1398853534
asI36917
(lp30
I268
aI1398853800
asI24631
(lp31
I2
aI1398852927
asI16735
(lp32
I16
aI1398853534
asI44724
(lp33
I6
aI1398853136
asI26682
(lp34
I4
aI1398853106
asI34875
(lp35
I8
aI1398853277
asI393348
(lp36
I20
aI1398853746
asI30781
(lp37
I86
aI1398853792
asI4230
(lp38
I116
aI1398853656
asI57696
(lp39
I2
aI1398853731
asI36930
(lp40
I4
aI1398853783
asI262216
(lp41
I8
aI1398853474
asI36937
(lp42
I4
aI1398853625
asI18103
(lp43
I56
aI1398853756
asI10316
(lp44
I32
aI1398853107
asI59469
(lp45
I14024
aI1398853800
asI36943
(lp46
I16
aI1398853106
asI36944
(lp47
I16
aI1398853568
asI36947
(lp48
I458
aI1398853797
asI53332
(lp49
I12
aI1398853107
asI24661
(lp50
I60
aI1398853686
asI262230
(lp51
I60
aI1398853558
asI15756
(lp52
I2
aI1398853445
asI45147
(lp53
I80
aI1398853756
asI131165
(lp54
I304
aI1398853386
asI6629
(lp55
I530
aI1398853792
asI39010
(lp56
I4
aI1398852916
asI16483
(lp57
I4
aI1398853107
asI12389
(lp58
I1156
aI1398853800
asI34918
(lp59
I540
aI1398853800
asI36967
(lp60
I4
aI1398853074
asI2153
(lp61
I8
aI1398853430
asI24683
(lp62
I240
aI1398853777
asI43209
(lp63
I8
aI1398853746
asI16494
(lp64
I8
aI1398853107
asI51313
(lp65
I4
aI1398853266
asI55410
(lp66
I194
aI1398853076
asI10355
(lp67
I44
aI1398853656
asI8308
(lp68
I30
aI1398853254
asI26941
(lp69
I4
aI1398853107
asI14734
(lp70
I18
aI1398853317
asI26744
(lp71
I2
aI1398853107
asI45177
(lp72
I5162
aI1398853797
asI30844
(lp73
I206
aI1398853704
asI36989
(lp74
I1874
aI1398853748
asI36992
(lp75
I84
aI1398853396
asI57474
(lp76
I8
aI1398853787
asI5483
(lp77
I60
aI1398853209
asI1501
(lp78
I56
aI1398853300
asI18565
(lp79
I2
aI1398853100
asI55430
(lp80
I16
aI1398853226
asI19137
(lp81
I12
aI1398853107
asI137
(lp82
I2
aI1398853013
asI45194
(lp83
I68
aI1398852976
asI196747
(lp84
I52
aI1398853316
asI28812
(lp85
I62
aI1398853036
asI131778
(lp86
I58
aI1398853756
asI53391
(lp87
I14
aI1398853776
asI39057
(lp88
I40
aI1398853798
asI24724
(lp89
I40
aI1398853755
asI198517
(lp90
I186
aI1398853691
asI53400
(lp91
I4
aI1398853107
asI262297
(lp92
I4
aI1398853562
asI8346
(lp93
I6
aI1398853515
asI20847
(lp94
I4
aI1398853266
asI52993
(lp95
I30
aI1398853722
asI37024
(lp96
I122
aI1398853684
asI61995
(lp97
I2
aI1398853475
asI39074
(lp98
I8
aI1398853787
asI37028
(lp99
I4
aI1398853625
asI31430
(lp100
I2
aI1398853384
asI6713
(lp101
I20
aI1398853534
asI16551
(lp102
I42
aI1398853085
asI210
(lp103
I4
aI1398853106
asI8220
(lp104
I10
aI1398853573
asI37034
(lp105
I310
aI1398853085
asI34988
(lp106
I4
aI1398853106
asI51373
(lp107
I8
aI1398853695
asI174
(lp108
I19086
aI1398853800
asI44401
(lp109
I132
aI1398853670
asI4808
(lp110
I1566
aI1398853750
asI38259
(lp111
I132
aI1398853362
asI20661
(lp112
I10
aI1398853761
asI45769
(lp113
I16
aI1398853437
asI131256
(lp114
I98
aI1398853394
asI57531
(lp115
I42
aI1398853700
asI263514
(lp116
I200
aI1398853658
asI8382
(lp117
I2
aI1398853196
asI47296
(lp118
I4
aI1398853106
asI22780
(lp119
I8
aI1398853107
asI41334
(lp120
I212
aI1398853792
asI8390
(lp121
I20
aI1398853194
asI22561
(lp122
I118
aI1398853691
asI28873
(lp123
I80
aI1398853500
asI10445
(lp124
I108
aI1398853716
asI28878
(lp125
I12
aI1398853730
asI11259
(lp126
I96
aI1398853800
asI51408
(lp127
I4
aI1398853752
asI209
(lp128
I2202
aI1398853800
asI8402
(lp129
I1046
aI1398853800
asI17806
(lp130
I92
aI1398853362
asI6360
(lp131
I8712
aI1398853800
asI55516
(lp132
I98
aI1398853460
asI57428
(lp133
I70
aI1398853350
asI14032
(lp134
I64
aI1398853595
asI226
(lp135
I4
aI1398853734
asI4323
(lp136
I7618
aI1398853800
asI38197
(lp137
I50
aI1398853430
asI22759
(lp138
I4
aI1398853106
asI17447
(lp139
I2
aI1398853236
asI131308
(lp140
I24
aI1398853396
asI237
(lp141
I12
aI1398853203
asI10481
(lp142
I60
aI1398853558
asI262867
(lp143
I72
aI1398853656
asI22772
(lp144
I8
aI1398853107
asI28917
(lp145
I318
aI1398853738
asI47350
(lp146
I2
aI1398852967
asI49401
(lp147
I80
aI1398853010
asI196991
(lp148
I166
aI1398853658
asI39164
(lp149
I8
aI1398853106
asI48359
(lp150
I224
aI1398853800
asI61248
(lp151
I72
aI1398853800
asI10497
(lp152
I4
aI1398853107
asI15557
(lp153
I216
aI1398853800
asI24835
(lp154
I26
aI1398853414
asI8452
(lp155
I324
aI1398853752
asI19158
(lp156
I2
aI1398853102
asI33031
(lp157
I8992
aI1398853796
asI14600
(lp158
I12
aI1398853107
asI31856
(lp159
I122
aI1398853684
asI39178
(lp160
I110
aI1398853537
asI39153
(lp161
I706
aI1398853746
asI20748
(lp162
I38
aI1398853607
asI51469
(lp163
I2
aI1398852927
asI16657
(lp164
I148
aI1398853239
asI196883
(lp165
I14
aI1398853800
asI35093
(lp166
I202
aI1398853223
asI45334
(lp167
I88
aI1398852962
asI6423
(lp168
I48
aI1398853107
asI31158
(lp169
I622
aI1398853800
asI49433
(lp170
I2
aI1398853286
asI28174
(lp171
I28
aI1398853654
asI20764
(lp172
I902
aI1398853800
asI286
(lp173
I650
aI1398853800
asI24863
(lp174
I212
aI1398853771
asI35104
(lp175
I228
aI1398853792
asI20771
(lp176
I2082
aI1398853800
asI196901
(lp177
I22
aI1398853676
asI12586
(lp178
I4
aI1398853295
asI37381
(lp179
I4
aI1398853679
asI36914
(lp180
I16
aI1398853568
asI49457
(lp181
I2
aI1398853730
asI306
(lp182
I2
aI1398852936
asI262195
(lp183
I128
aI1398853546
asI6453
(lp184
I22252
aI1398853800
asI26935
(lp185
I4
aI1398853107
asI6456
(lp186
I16
aI1398853107
asI6459
(lp187
I234
aI1398853786
asI6461
(lp188
I2816
aI1398853793
asI59715
(lp189
I4006
aI1398853777
asI20804
(lp190
I354
aI1398853800
asI12615
(lp191
I1018
aI1398853628
asI133448
(lp192
I56
aI1398853534
asI12617
(lp193
I754
aI1398853795
asI2379
(lp194
I6
aI1398853638
asI8524
(lp195
I6
aI1398853236
asI3810
(lp196
I20
aI1398853774
asI24626
(lp197
I40
aI1398853531
asI51535
(lp198
I154
aI1398853010
asI8529
(lp199
I12054
aI1398853800
asI2386
(lp200
I52
aI1398853285
asI21219
(lp201
I160
aI1398853800
asI4436
(lp202
I438
aI1398853535
asI48526
(lp203
I3286
aI1398853776
asI43350
(lp204
I36
aI1398853106
asI55353
(lp205
I40
aI1398853777
asI22873
(lp206
I3898
aI1398853792
asI23951
(lp207
I6
aI1398853750
asI10589
(lp208
I4
aI1398853107
asI49893
(lp209
I360
aI1398853329
asI35168
(lp210
I120
aI1398853792
asI41313
(lp211
I56
aI1398853796
asI43366
(lp212
I20
aI1398853106
asI55655
(lp213
I136
aI1398853528
asI37228
(lp214
I4
aI1398853445
asI14701
(lp215
I20
aI1398853107
asI12654
(lp216
I72
aI1398853285
asI45117
(lp217
I6
aI1398853043
asI16753
(lp218
I8
aI1398853107
asI26003
(lp219
I8
aI1398853107
asI6517
(lp220
I100
aI1398853085
asI47478
(lp221
I80
aI1398853537
asI16760
(lp222
I4
aI1398853106
asI29049
(lp223
I896
aI1398853800
asI8571
(lp224
I894
aI1398853800
asI17922
(lp225
I8
aI1398853468
asI41342
(lp226
I4
aI1398853106
asI22911
(lp227
I16
aI1398853107
asI19653
(lp228
I498
aI1398853276
asI50923
(lp229
I52
aI1398853666
asI10633
(lp230
I4
aI1398853106
asI12695
(lp231
I112
aI1398853671
asI39308
(lp232
I350
aI1398853800
asI41357
(lp233
I12
aI1398853354
asI41358
(lp234
I38
aI1398853254
asI22927
(lp235
I374
aI1398853654
asI57745
(lp236
I124
aI1398853748
asI12690
(lp237
I6
aI1398853338
asI37267
(lp238
I8
aI1398853800
asI29076
(lp239
I116
aI1398853662
asI14742
(lp240
I4
aI1398853107
asI14743
(lp241
I316
aI1398853800
asI3361
(lp242
I4
aI1398853107
asI35567
(lp243
I638
aI1398853761
asI31133
(lp244
I508
aI1398853800
asI39326
(lp245
I2
aI1398853416
asI12703
(lp246
I42
aI1398853107
asI22791
(lp247
I4
aI1398853107
asI45474
(lp248
I32
aI1398853308
asI53667
(lp249
I8
aI1398853107
asI18856
(lp250
I4
aI1398853107
asI37019
(lp251
I28
aI1398853798
asI12714
(lp252
I58
aI1398853357
asI25003
(lp253
I4
aI1398853679
asI12716
(lp254
I60
aI1398853500
asI23678
(lp255
I50
aI1398853744
asI22958
(lp256
I2
aI1398853013
asI47535
(lp257
I8
aI1398853588
asI52934
(lp258
I264
aI1398853778
asI33203
(lp259
I8
aI1398853107
asI38533
(lp260
I2
aI1398853656
asI17638
(lp261
I18
aI1398853744
asI27064
(lp262
I470
aI1398853800
asI27065
(lp263
I78
aI1398853632
asI27066
(lp264
I230
aI1398853776
asI31163
(lp265
I20
aI1398853746
asI55740
(lp266
I232
aI1398853396
asI262589
(lp267
I4222
aI1398853782
asI20927
(lp268
I50
aI1398853416
asI53696
(lp269
I4
aI1398853107
asI8641
(lp270
I252
aI1398853670
asI55746
(lp271
I26
aI1398853546
asI38409
(lp272
I4
aI1398853800
asI29125
(lp273
I4
aI1398853770
asI16839
(lp274
I12
aI1398853107
asI262600
(lp275
I10
aI1398853679
asI18890
(lp276
I4
aI1398853107
asI20940
(lp277
I1598
aI1398853535
asI41037
(lp278
I4
aI1398853106
asI8657
(lp279
I608
aI1398853786
asI38307
(lp280
I16
aI1398853107
asI2516
(lp281
I2638
aI1398853800
asI262613
(lp282
I106
aI1398853564
asI2518
(lp283
I11550
aI1398853800
asI45528
(lp284
I148
aI1398853396
asI39386
(lp285
I12
aI1398853700
asI41435
(lp286
I208
aI1398853145
asI37340
(lp287
I714
aI1398853517
asI6621
(lp288
I10
aI1398853775
asI39501
(lp289
I2
aI1398853579
asI53728
(lp290
I4
aI1398853107
asI28658
(lp291
I1990
aI1398853670
asI51299
(lp292
I48
aI1398853738
asI37348
(lp293
I110
aI1398853414
asI47589
(lp294
I156
aI1398853300
asI131702
(lp295
I236
aI1398853686
asI17974
(lp296
I4
aI1398853800
asI55720
(lp297
I32
aI1398853744
asI31220
(lp298
I32
aI1398853106
asI23203
(lp299
I6
aI1398853467
asI48640
(lp300
I24
aI1398853145
asI37367
(lp301
I126
aI1398853040
asI35320
(lp302
I86
aI1398853145
asI23033
(lp303
I68
aI1398853107
asI20223
(lp304
I8
aI1398853107
asI21021
(lp305
I30
aI1398853625
asI23038
(lp306
I8
aI1398853107
asI27137
(lp307
I110
aI1398853088
asI52323
(lp308
I216
aI1398853538
asI10756
(lp309
I8
aI1398853107
asI25454
(lp310
I24
aI1398853320
asI46849
(lp311
I4
aI1398853107
asI18954
(lp312
I84
aI1398853780
asI8717
(lp313
I118
aI1398853478
asI45582
(lp314
I192
aI1398853396
asI9304
(lp315
I414
aI1398853744
asI45590
(lp316
I36
aI1398853688
asI18968
(lp317
I50
aI1398853175
asI45095
(lp318
I2
aI1398853444
asI4635
(lp319
I700
aI1398853792
asI6723
(lp320
I38
aI1398853738
asI4637
(lp321
I370
aI1398853800
asI262687
(lp322
I10
aI1398853679
asI5552
(lp323
I4
aI1398853106
asI18978
(lp324
I52
aI1398853107
asI6695
(lp325
I306
aI1398853716
asI4648
(lp326
I1612
aI1398853795
asI33321
(lp327
I8
aI1398853103
asI2603
(lp328
I834
aI1398853783
asI53805
(lp329
I4
aI1398853106
asI18990
(lp330
I18
aI1398853509
asI4657
(lp331
I22
aI1398853778
asI12850
(lp332
I28
aI1398853498
asI33337
(lp333
I4
aI1398853107
asI12859
(lp334
I4
aI1398853209
asI575
(lp335
I2
aI1398852936
asI577
(lp336
I782
aI1398853752
asI3851
(lp337
I12
aI1398853107
asI13750
(lp338
I24
aI1398853107
asI31303
(lp339
I6
aI1398853785
asI35400
(lp340
I8
aI1398853277
asI35401
(lp341
I28
aI1398852910
asI8778
(lp342
I4
aI1398853718
asI37451
(lp343
I468
aI1398853756
asI51788
(lp344
I40
aI1398853800
asI18530
(lp345
I24
aI1398853107
asI12880
(lp346
I1692
aI1398853800
asI45650
(lp347
I116
aI1398853662
asI6739
(lp348
I6
aI1398853093
asI22969
(lp349
I2
aI1398853100
asI6746
(lp350
I8
aI1398853142
asI19035
(lp351
I4
aI1398853071
asI19037
(lp352
I18
aI1398853273
asI45157
(lp353
I26
aI1398853679
asI25184
(lp354
I334
aI1398853746
asI23138
(lp355
I8
aI1398853107
asI37475
(lp356
I84
aI1398853010
asI45668
(lp357
I186
aI1398853628
asI12129
(lp358
I2
aI1398853203
asI4713
(lp359
I108
aI1398853716
asI6762
(lp360
I9552
aI1398853800
asI55915
(lp361
I22
aI1398853656
asI49777
(lp362
I236
aI1398853546
asI16524
(lp363
I4
aI1398853107
asI45572
(lp364
I28
aI1398853798
asI4725
(lp365
I84
aI1398853223
asI6774
(lp366
I3020
aI1398853776
asI45845
(lp367
I190
aI1398853662
asI43694
(lp368
I58
aI1398853577
asI4739
(lp369
I1150
aI1398853793
asI4886
(lp370
I24
aI1398853106
asI10886
(lp371
I86
aI1398853785
asI29319
(lp372
I262
aI1398853671
asI25227
(lp373
I4
aI1398853456
asI22458
(lp374
I4
aI1398853107
asI197264
(lp375
I9874
aI1398853781
asI58002
(lp376
I20
aI1398853700
asI4755
(lp377
I5866
aI1398853800
asI19092
(lp378
I12
aI1398853104
asI57454
(lp379
I118
aI1398853800
asI4758
(lp380
I28
aI1398853509
asI27287
(lp381
I50
aI1398853236
asI4761
(lp382
I350
aI1398853709
asI15003
(lp383
I32
aI1398853107
asI12956
(lp384
I2952
aI1398853783
asI4766
(lp385
I126
aI1398853608
asI17055
(lp386
I4
aI1398853106
asI33904
(lp387
I2
aI1398853339
asI8866
(lp388
I614
aI1398853568
asI6939
(lp389
I14120
aI1398853800
asI19108
(lp390
I2
aI1398853679
asI16243
(lp391
I2
aI1398853777
asI4775
(lp392
I280
aI1398853796
asI37544
(lp393
I42
aI1398853085
asI37545
(lp394
I2
aI1398852923
asI9229
(lp395
I18
aI1398853286
asI8877
(lp396
I416
aI1398853796
asI6830
(lp397
I22
aI1398853730
asI60785
(lp398
I2
aI1398853730
asI12976
(lp399
I60
aI1398853534
asI4788
(lp400
I286
aI1398853800
asI11038
(lp401
I12
aI1398853107
asI31415
(lp402
I2
aI1398852983
asI50292
(lp403
I2
aI1398853416
asI27323
(lp404
I20
aI1398853107
asI198357
(lp405
I288
aI1398853800
asI701
(lp406
I5914
aI1398853800
asI702
(lp407
I684
aI1398853800
asI703
(lp408
I18
aI1398853800
asI31425
(lp409
I222
aI1398853084
asI4802
(lp410
I282
aI1398853366
asI9811
(lp411
I16
aI1398853750
asI43718
(lp412
I104
aI1398853194
asI16235
(lp413
I16
aI1398853787
asI13000
(lp414
I46
aI1398853028
asI30065
(lp415
I4
aI1398853107
asI2764
(lp416
I2312
aI1398853793
asI45773
(lp417
I52
aI1398853784
asI49872
(lp418
I4
aI1398853347
asI721
(lp419
I740
aI1398853800
asI33490
(lp420
I2
aI1398853106
asI803
(lp421
I4
aI1398853107
asI33494
(lp422
I8
aI1398853107
asI12068
(lp423
I4
aI1398853106
asI4826
(lp424
I5134
aI1398853793
asI41691
(lp425
I1076
aI1398853800
asI15070
(lp426
I16
aI1398853107
asI197343
(lp427
I188
aI1398853800
asI8928
(lp428
I72
aI1398853800
asI58081
(lp429
I32
aI1398853790
asI6503
(lp430
I660
aI1398853688
asI4837
(lp431
I18490
aI1398853752
asI13030
(lp432
I66
aI1398853568
asI17129
(lp433
I8
aI1398853107
asI45804
(lp434
I76
aI1398853010
asI6893
(lp435
I4
aI1398853730
asI4847
(lp436
I558
aI1398853798
asI27377
(lp437
I8
aI1398853107
asI37619
(lp438
I38
aI1398853445
asI13438
(lp439
I16
aI1398853107
asI62198
(lp440
I20
aI1398853790
asI58104
(lp441
I10
aI1398853790
asI8953
(lp442
I10
aI1398853320
asI45820
(lp443
I1142
aI1398853578
asI54014
(lp444
I8
aI1398853107
asI23295
(lp445
I138
aI1398853300
asI47872
(lp446
I838
aI1398853040
asI38556
(lp447
I396
aI1398853347
asI40747
(lp448
I4
aI1398853107
asI8966
(lp449
I204
aI1398853800
asI29449
(lp450
I1462
aI1398853777
asI61129
(lp451
I6
aI1398853787
asI2828
(lp452
I3410
aI1398853798
asI23682
(lp453
I86
aI1398853795
asI45841
(lp454
I364
aI1398853777
asI33555
(lp455
I4
aI1398853107
asI23317
(lp456
I4
aI1398853107
asI39702
(lp457
I8
aI1398853048
asI6936
(lp458
I12
aI1398853107
asI33924
(lp459
I174
aI1398853731
asI47898
(lp460
I10
aI1398853722
asI58139
(lp461
I28
aI1398853671
asI21277
(lp462
I4
aI1398853106
asI37662
(lp463
I4
aI1398853074
asI24709
(lp464
I24
aI1398853537
asI17184
(lp465
I4
aI1398853106
asI17185
(lp466
I16
aI1398853107
asI52002
(lp467
I40
aI1398853531
asI15835
(lp468
I2
aI1398852955
asI47218
(lp469
I28
aI1398853746
asI41766
(lp470
I2
aI1398853733
asI2856
(lp471
I30
aI1398853686
asI9002
(lp472
I1718
aI1398853783
asI7303
(lp473
I238
aI1398853634
asI13101
(lp474
I4
aI1398853295
asI11054
(lp475
I470
aI1398853800
asI3549
(lp476
I7760
aI1398853800
asI4913
(lp477
I8
aI1398853593
asI43826
(lp478
I148
aI1398853383
asI37686
(lp479
I54
aI1398853516
asI58167
(lp480
I26
aI1398853800
asI39737
(lp481
I8
aI1398853142
asI31546
(lp482
I486
aI1398853378
asI19259
(lp483
I16
aI1398852920
asI52879
(lp484
I10
aI1398853679
asI13118
(lp485
I62
aI1398853534
asI39743
(lp486
I22
aI1398852938
asI12066
(lp487
I44
aI1398853528
asI20960
(lp488
I18
aI1398853122
asI56132
(lp489
I12
aI1398853107
asI49989
(lp490
I54
aI1398853625
asI23647
(lp491
I12
aI1398853655
asI6983
(lp492
I20
aI1398853746
asI45896
(lp493
I3012
aI1398853800
asI52041
(lp494
I8
aI1398853636
asI40418
(lp495
I54
aI1398853416
asI51341
(lp496
I364
aI1398853800
asI30307
(lp497
I8
aI1398853493
asI852
(lp498
I90
aI1398853657
asI25429
(lp499
I2
aI1398852923
asI262999
(lp500
I6
aI1398853800
asI47961
(lp501
I64
aI1398853414
asI9050
(lp502
I42
aI1398853791
asI2907
(lp503
I240
aI1398853223
asI45916
(lp504
I66
aI1398853076
asI16941
(lp505
I10
aI1398853752
asI17623
(lp506
I8412
aI1398853750
asI20965
(lp507
I22
aI1398853618
asI2914
(lp508
I16306
aI1398853800
asI23355
(lp509
I4
aI1398853107
asI15206
(lp510
I712
aI1398853636
asI34867
(lp511
I10
aI1398853700
asI7018
(lp512
I2234
aI1398853800
asI33643
(lp513
I46
aI1398853086
asI9070
(lp514
I50
aI1398852931
asI22333
(lp515
I30
aI1398853246
asI39792
(lp516
I50
aI1398853748
asI27067
(lp517
I2
aI1398853509
asI58599
(lp518
I458
aI1398853056
asI3561
(lp519
I1326
aI1398853799
asI41095
(lp520
I8
aI1398853535
asI53563
(lp521
I4
aI1398853106
asI53689
(lp522
I4
aI1398853107
asI199487
(lp523
I2
aI1398853728
asI263041
(lp524
I232
aI1398853670
asI29571
(lp525
I2446
aI1398853770
asI13188
(lp526
I128
aI1398853145
asI58245
(lp527
I4
aI1398853106
asI25478
(lp528
I150
aI1398853648
asI7049
(lp529
I536
aI1398853686
asI24785
(lp530
I12
aI1398853537
asI60299
(lp531
I108
aI1398853748
asI56204
(lp532
I14
aI1398853656
asI13113
(lp533
I4
aI1398853498
asI58256
(lp534
I56
aI1398853599
asI7057
(lp535
I278
aI1398853746
asI25490
(lp536
I208
aI1398853800
asI49404
(lp537
I74
aI1398853239
asI197526
(lp538
I4
aI1398853445
asI11164
(lp539
I1922
aI1398853800
asI13213
(lp540
I12
aI1398853107
asI48030
(lp541
I2728
aI1398853040
asI263334
(lp542
I52
aI1398853797
asI54794
(lp543
I106
aI1398853718
asI9121
(lp544
I48
aI1398853790
asI17315
(lp545
I4
aI1398853107
asI11172
(lp546
I16
aI1398852920
asI197541
(lp547
I50
aI1398853624
asI11174
(lp548
I12
aI1398853107
asI19368
(lp549
I4
aI1398853107
asI13468
(lp550
I524
aI1398853655
asI57596
(lp551
I18
aI1398853247
asI37148
(lp552
I2280
aI1398853518
asI131717
(lp553
I596
aI1398853756
asI62386
(lp554
I236
aI1398853800
asI197556
(lp555
I120
aI1398853792
asI11189
(lp556
I4
aI1398853107
asI15286
(lp557
I4
aI1398853107
asI60345
(lp558
I242
aI1398853638
asI62132
(lp559
I92
aI1398853800
asI56256
(lp560
I44
aI1398853174
asI56257
(lp561
I1574
aI1398853528
asI54210
(lp562
I4
aI1398853106
asI9155
(lp563
I156
aI1398853300
asI48068
(lp564
I42
aI1398853679
asI43268
(lp565
I4
aI1398853684
asI25543
(lp566
I444
aI1398853684
asI19401
(lp567
I22
aI1398853630
asI36926
(lp568
I2
aI1398853588
asI29646
(lp569
I38
aI1398853800
asI32698
(lp570
I40
aI1398853726
asI36003
(lp571
I4
aI1398853107
asI33748
(lp572
I170
aI1398853107
asI58326
(lp573
I4
aI1398853731
asI35799
(lp574
I4
aI1398853106
asI17368
(lp575
I656
aI1398853792
asI43994
(lp576
I108
aI1398853748
asI7131
(lp577
I58
aI1398853626
asI44759
(lp578
I2
aI1398853339
asI42490
(lp579
I6
aI1398853538
asI35808
(lp580
I166
aI1398853686
asI46049
(lp581
I4
aI1398853172
asI285909
(lp582
I378
aI1398853607
asI25766
(lp583
I4
aI1398853107
asI25577
(lp584
I2
aI1398853106
asI8359
(lp585
I494
aI1398853722
asI7151
(lp586
I8
aI1398853107
asI132080
(lp587
I136
aI1398853036
asI34984
(lp588
I916
aI1398853800
asI62450
(lp589
I26
aI1398853648
asI29684
(lp590
I12
aI1398853700
asI17400
(lp591
I140
aI1398853792
asI15354
(lp592
I16
aI1398853107
asI13307
(lp593
I38
aI1398853738
asI50173
(lp594
I30
aI1398853655
asI26453
(lp595
I6
aI1398853233
asI34304
(lp596
I202
aI1398853223
asI55818
(lp597
I24
aI1398853691
asI35843
(lp598
I654
aI1398853596
asI48132
(lp599
I28
aI1398853074
asI19461
(lp600
I40
aI1398853107
asI197640
(lp601
I4
aI1398853106
asI15191
(lp602
I6
aI1398853467
asI198279
(lp603
I166
aI1398853697
asI26114
(lp604
I4
aI1398853106
asI9230
(lp605
I8
aI1398853024
asI11279
(lp606
I4
aI1398853106
asI13328
(lp607
I8
aI1398853107
asI53080
(lp608
I32
aI1398853534
asI47165
(lp609
I74
aI1398853239
asI25091
(lp610
I36
aI1398853746
asI17429
(lp611
I42
aI1398853744
asI17430
(lp612
I42
aI1398853744
asI17431
(lp613
I296
aI1398853750
asI8708
(lp614
I80
aI1398853761
asI53082
(lp615
I64
aI1398853564
asI48159
(lp616
I15808
aI1398853800
asI3104
(lp617
I8
aI1398853107
asI42020
(lp618
I4
aI1398852916
asI29873
(lp619
I48
aI1398853107
asI54312
(lp620
I12
aI1398853107
asI7004
(lp621
I84
aI1398853286
asI13354
(lp622
I176
aI1398853107
asI6663
(lp623
I362
aI1398853731
asI9260
(lp624
I22
aI1398853770
asI11309
(lp625
I12
aI1398853107
asI28509
(lp626
I1038
aI1398853688
asI48659
(lp627
I218
aI1398853629
asI15412
(lp628
I290
aI1398853800
asI60469
(lp629
I92
aI1398853628
asI9270
(lp630
I2
aI1398852922
asI56375
(lp631
I8
aI1398853740
asI17465
(lp632
I2288
aI1398853400
asI12810
(lp633
I2
aI1398853475
asI6325
(lp634
I432
aI1398853746
asI33859
(lp635
I8
aI1398853106
asI46150
(lp636
I4
aI1398853106
asI28513
(lp637
I18
aI1398853243
asI15433
(lp638
I4
aI1398852916
asI35914
(lp639
I4
aI1398853107
asI17483
(lp640
I310
aI1398853396
asI27724
(lp641
I5864
aI1398853783
asI1103
(lp642
I40
aI1398853269
asI46160
(lp643
I4
aI1398853107
asI56402
(lp644
I466
aI1398853791
asI58452
(lp645
I6
aI1398853138
asI58453
(lp646
I40
aI1398853750
asI17494
(lp647
I40
aI1398853312
asI58456
(lp648
I72
aI1398853509
asI58457
(lp649
I8
aI1398853396
asI9308
(lp650
I90
aI1398853750
asI56503
(lp651
I276
aI1398853800
asI38363
(lp652
I44
aI1398853744
asI28281
(lp653
I1574
aI1398853783
asI21246
(lp654
I36
aI1398853647
asI46179
(lp655
I8
aI1398853107
asI54373
(lp656
I24
aI1398853246
asI9318
(lp657
I218
aI1398853800
asI54376
(lp658
I8
aI1398853209
asI8039
(lp659
I18
aI1398853460
asI48237
(lp660
I2
aI1398853616
asI38000
(lp661
I108
aI1398853692
asI11377
(lp662
I60
aI1398853106
asI1555
(lp663
I56
aI1398853300
asI38004
(lp664
I4
aI1398853107
asI5237
(lp665
I12
aI1398853632
asI54391
(lp666
I4
aI1398853107
asI31500
(lp667
I52
aI1398853666
asI44158
(lp668
I108
aI1398853748
asI21632
(lp669
I4
aI1398853107
asI40065
(lp670
I40
aI1398853107
asI38018
(lp671
I122
aI1398853660
asI10091
(lp672
I476
aI1398853716
asI4812
(lp673
I66
aI1398853744
asI38022
(lp674
I140
aI1398853670
asI11457
(lp675
I976
aI1398853636
asI23688
(lp676
I408
aI1398853056
asI3209
(lp677
I46
aI1398853414
asI32977
(lp678
I12
aI1398853107
asI13451
(lp679
I4
aI1398853107
asI11404
(lp680
I284
aI1398853467
asI58511
(lp681
I8222
aI1398853797
asI3216
(lp682
I1534
aI1398853800
asI29208
(lp683
I4
aI1398853718
asI48289
(lp684
I202
aI1398853800
asI29844
(lp685
I16
aI1398853107
asI17557
(lp686
I750
aI1398853791
asI40089
(lp687
I8
aI1398853107
asI40092
(lp688
I8
aI1398853107
asI48285
(lp689
I15106
aI1398853781
asI1221
(lp690
I244
aI1398853800
asI50337
(lp691
I202
aI1398853223
asI11427
(lp692
I598
aI1398853799
asI53232
(lp693
I60
aI1398853568
asI62630
(lp694
I8
aI1398853106
asI44391
(lp695
I140
aI1398853676
asI8905
(lp696
I42
aI1398853577
asI57543
(lp697
I312
aI1398853791
asI23724
(lp698
I6
aI1398853444
asI27822
(lp699
I68
aI1398853418
asI9391
(lp700
I28
aI1398853744
asI3249
(lp701
I28
aI1398853761
asI9394
(lp702
I18
aI1398853750
asI42163
(lp703
I478
aI1398853800
asI48309
(lp704
I1028
aI1398853800
asI3255
(lp705
I598
aI1398853800
asI58552
(lp706
I24
aI1398853709
asI3257
(lp707
I9510
aI1398853799
asI38077
(lp708
I2918
aI1398853456
asI7029
(lp709
I140
aI1398853776
asI29888
(lp710
I4
aI1398853107
asI54465
(lp711
I268
aI1398853793
asI61962
(lp712
I30
aI1398853800
asI3267
(lp713
I4686
aI1398853783
asI3269
(lp714
I2544
aI1398853777
asI23752
(lp715
I3138
aI1398853509
asI13513
(lp716
I44
aI1398853656
asI9929
(lp717
I24
aI1398853744
asI27851
(lp718
I148
aI1398853500
asI16930
(lp719
I4
aI1398853107
asI44237
(lp720
I62
aI1398853534
asI50384
(lp721
I86
aI1398853746
asI21713
(lp722
I4
aI1398853107
asI11476
(lp723
I4
aI1398853107
asI17621
(lp724
I1016
aI1398853752
asI17622
(lp725
I656
aI1398853752
asI1239
(lp726
I5980
aI1398853795
asI17625
(lp727
I160
aI1398853085
asI54346
(lp728
I2
aI1398853509
asI23772
(lp729
I4
aI1398853358
asI8400
(lp730
I40
aI1398853660
asI15589
(lp731
I482
aI1398853777
asI11494
(lp732
I22
aI1398853236
asI3303
(lp733
I1186
aI1398853776
asI263004
(lp734
I264
aI1398853778
asI44269
(lp735
I38
aI1398853671
asI13551
(lp736
I4
aI1398853107
asI37416
(lp737
I70
aI1398853517
asI37004
(lp738
I1154
aI1398853518
asI58611
(lp739
I4
aI1398853107
asI36086
(lp740
I4
aI1398853106
asI25847
(lp741
I56
aI1398853107
asI3320
(lp742
I1796
aI1398853769
asI1273
(lp743
I2594
aI1398853800
asI132346
(lp744
I6
aI1398853626
asI17660
(lp745
I8
aI1398853107
asI27901
(lp746
I164
aI1398853467
asI3327
(lp747
I124
aI1398853624
asI1280
(lp748
I6
aI1398853722
asI17665
(lp749
I52
aI1398853056
asI22059
(lp750
I4
aI1398853107
asI48390
(lp751
I4
aI1398852910
asI56193
(lp752
I2
aI1398853618
asI41152
(lp753
I106
aI1398853800
asI5386
(lp754
I2
aI1398852955
asI54539
(lp755
I22
aI1398853236
asI51074
(lp756
I78
aI1398853800
asI1294
(lp757
I4
aI1398853106
asI5391
(lp758
I638
aI1398853761
asI5392
(lp759
I100
aI1398853777
asI11537
(lp760
I186
aI1398853785
asI1299
(lp761
I29866
aI1398853800
asI8151
(lp762
I78
aI1398853774
asI3352
(lp763
I54
aI1398853607
asI9498
(lp764
I13524
aI1398853800
asI29979
(lp765
I4
aI1398853107
asI3356
(lp766
I30588
aI1398853800
asI5408
(lp767
I6
aI1398853618
asI9505
(lp768
I70
aI1398853716
asI59442
(lp769
I104
aI1398853800
asI23844
(lp770
I20
aI1398853750
asI5413
(lp771
I28
aI1398853285
asI38182
(lp772
I18
aI1398853744
asI56616
(lp773
I40
aI1398853800
asI3292
(lp774
I312
aI1398853795
asI19754
(lp775
I7698
aI1398853799
asI23853
(lp776
I112
aI1398853744
asI21806
(lp777
I148
aI1398853239
asI7473
(lp778
I1456
aI1398853791
asI7474
(lp779
I4
aI1398853306
asI60725
(lp780
I2256
aI1398853456
asI56632
(lp781
I24
aI1398853790
asI23866
(lp782
I6
aI1398853656
asI49691
(lp783
I4
aI1398853134
asI21827
(lp784
I4
aI1398853107
asI44356
(lp785
I126
aI1398853040
asI54744
(lp786
I16
aI1398853107
asI19782
(lp787
I86
aI1398853785
asI58695
(lp788
I48
aI1398853056
asI7497
(lp789
I16
aI1398853596
asI34123
(lp790
I444
aI1398853383
asI263500
(lp791
I2
aI1398853439
asI17402
(lp792
I8
aI1398853493
asI1358
(lp793
I16
aI1398853780
asI133005
(lp794
I28
aI1398853564
asI21840
(lp795
I68
aI1398853699
asI27986
(lp796
I108
aI1398853686
asI200019
(lp797
I506
aI1398853378
asI36180
(lp798
I20
aI1398853107
asI41440
(lp799
I2
aI1398853196
asI44375
(lp800
I600
aI1398853800
asI9560
(lp801
I18
aI1398853670
asI132441
(lp802
I56
aI1398853566
asI17754
(lp803
I390
aI1398853396
asI58715
(lp804
I396
aI1398853347
asI58717
(lp805
I8
aI1398853024
asI7606
(lp806
I38
aI1398853300
asI42337
(lp807
I244
aI1398853638
asI17762
(lp808
I160
aI1398853085
asI58725
(lp809
I16
aI1398853396
asI28329
(lp810
I152
aI1398853531
asI55479
(lp811
I76
aI1398853752
asI13673
(lp812
I12
aI1398853107
asI17771
(lp813
I32
aI1398853396
asI32098
(lp814
I398
aI1398853716
asI32113
(lp815
I4
aI1398853107
asI24138
(lp816
I18
aI1398853750
asI200051
(lp817
I408
aI1398853746
asI13684
(lp818
I182
aI1398853624
asI17781
(lp819
I28
aI1398853750
asI251
(lp820
I2
aI1398853660
asI6866
(lp821
I66
aI1398853688
asI7545
(lp822
I1394
aI1398853792
asI12049
(lp823
I246
aI1398853606
asI40317
(lp824
I4
aI1398853107
asI9802
(lp825
I110
aI1398853750
asI19840
(lp826
I4
aI1398853107
asI23937
(lp827
I8
aI1398853396
asI57579
(lp828
I8
aI1398853746
asI58262
(lp829
I124
aI1398853800
asI21894
(lp830
I4
aI1398853107
asI5511
(lp831
I1982
aI1398853750
asI5639
(lp832
I56
aI1398853718
asI37100
(lp833
I4
aI1398853372
asI132490
(lp834
I158
aI1398853778
asI23947
(lp835
I2210
aI1398853776
asI23948
(lp836
I6
aI1398853138
asI58766
(lp837
I8
aI1398853396
asI17645
(lp838
I2
aI1398853638
asI11664
(lp839
I36
aI1398853273
asI13713
(lp840
I12
aI1398853107
asI13714
(lp841
I4
aI1398853106
asI3475
(lp842
I330
aI1398853731
asI7573
(lp843
I8
aI1398853107
asI11670
(lp844
I2
aI1398853547
asI7575
(lp845
I264
aI1398853234
asI56728
(lp846
I2
aI1398853730
asI12732
(lp847
I80
aI1398853791
asI17820
(lp848
I18
aI1398853364
asI57673
(lp849
I126
aI1398853800
asI13727
(lp850
I278
aI1398853746
asI6731
(lp851
I16
aI1398853541
asI3491
(lp852
I5132
aI1398853795
asI5541
(lp853
I132
aI1398853378
asI16625
(lp854
I14152
aI1398853783
asI11691
(lp855
I4
aI1398853107
asI32172
(lp856
I12
aI1398853107
asI50606
(lp857
I6
aI1398853684
asI34224
(lp858
I2908
aI1398853800
asI11166
(lp859
I12
aI1398853107
asI40374
(lp860
I20
aI1398853699
asI202168
(lp861
I90
aI1398853568
asI30139
(lp862
I4
aI1398853106
asI60860
(lp863
I256
aI1398853628
asI54858
(lp864
I4
aI1398853106
asI131317
(lp865
I8
aI1398853396
asI19905
(lp866
I20
aI1398853331
asI34243
(lp867
I4
aI1398853106
asI9119
(lp868
I4
aI1398853731
asI52682
(lp869
I4
aI1398853618
asI34251
(lp870
I462
aI1398853800
asI5580
(lp871
I378
aI1398853778
asI8781
(lp872
I8
aI1398853284
asI24016
(lp873
I24
aI1398853666
asI3538
(lp874
I110
aI1398853088
asI5588
(lp875
I8
aI1398853216
asI7637
(lp876
I24
aI1398853107
asI7638
(lp877
I14
aI1398853750
asI62713
(lp878
I4
aI1398853106
asI21976
(lp879
I8
aI1398853107
asI28580
(lp880
I82
aI1398853791
asI58085
(lp881
I1004
aI1398853800
asI42459
(lp882
I64
aI1398852918
asI15836
(lp883
I4
aI1398853134
asI24029
(lp884
I72
aI1398853010
asI14245
(lp885
I32
aI1398853107
asI17888
(lp886
I56
aI1398853791
asI45648
(lp887
I6
aI1398853456
asI46562
(lp888
I60
aI1398853107
asI5603
(lp889
I36
aI1398853647
asI48612
(lp890
I6
aI1398853722
asI50661
(lp891
I18
aI1398853122
asI30183
(lp892
I2
aI1398853107
asI28802
(lp893
I2
aI1398853800
asI42473
(lp894
I76
aI1398853778
asI24151
(lp895
I6
aI1398853722
asI4007
(lp896
I28
aI1398853662
asI7660
(lp897
I38
aI1398853135
asI55698
(lp898
I78
aI1398853756
asI44285
(lp899
I358
aI1398853338
asI263664
(lp900
I6
aI1398852959
asI50673
(lp901
I2
aI1398852967
asI28146
(lp902
I452
aI1398853797
asI10835
(lp903
I4
aI1398853106
asI3573
(lp904
I10
aI1398853700
asI19009
(lp905
I18
aI1398853317
asI28151
(lp906
I152
aI1398853638
asI17912
(lp907
I4
aI1398853396
asI5716
(lp908
I4
aI1398853107
asI132602
(lp909
I40
aI1398853312
asI13819
(lp910
I4
aI1398853107
asI197068
(lp911
I52
aI1398853316
asI38398
(lp912
I30
aI1398853467
asI36352
(lp913
I48
aI1398853647
asI9730
(lp914
I698
aI1398853800
asI38403
(lp915
I6
aI1398853528
asI56836
(lp916
I68
aI1398853084
asI9814
(lp917
I212
aI1398853750
asI34310
(lp918
I6
aI1398853746
asI13831
(lp919
I8
aI1398853106
asI28168
(lp920
I102
aI1398853776
asI30217
(lp921
I8
aI1398853608
asI38410
(lp922
I174
aI1398853770
asI18881
(lp923
I588
aI1398853800
asI19982
(lp924
I2
aI1398852910
asI19713
(lp925
I8
aI1398853107
asI1554
(lp926
I56
aI1398853300
asI5651
(lp927
I16
aI1398853107
asI50710
(lp928
I4
aI1398853106
asI46617
(lp929
I4
aI1398853107
asI17946
(lp930
I240
aI1398853223
asI54815
(lp931
I1428
aI1398853793
asI22351
(lp932
I416
aI1398853434
asI7713
(lp933
I66
aI1398853800
asI132642
(lp934
I10
aI1398853618
asI22051
(lp935
I8
aI1398853107
asI48679
(lp936
I8
aI1398853800
asI34344
(lp937
I4
aI1398853106
asI8455
(lp938
I4
aI1398853555
asI17964
(lp939
I76
aI1398853744
asI13869
(lp940
I8
aI1398853107
asI50735
(lp941
I36
aI1398853671
asI28208
(lp942
I192
aI1398853074
asI59623
(lp943
I48
aI1398853599
asI132658
(lp944
I168
aI1398853509
asI26163
(lp945
I70
aI1398853720
asI20021
(lp946
I60
aI1398853107
asI24535
(lp947
I284
aI1398853528
asI7738
(lp948
I180
aI1398853795
asI28255
(lp949
I762
aI1398853654
asI52490
(lp950
I430
aI1398853278
asI24130
(lp951
I1448
aI1398853793
asI44244
(lp952
I370
aI1398853800
asI7752
(lp953
I36
aI1398853107
asI32329
(lp954
I12
aI1398853107
asI30282
(lp955
I42
aI1398853784
asI50625
(lp956
I968
aI1398853800
asI9808
(lp957
I40
aI1398853750
asI19043
(lp958
I8
aI1398853107
asI9812
(lp959
I108
aI1398853750
asI36438
(lp960
I4
aI1398853107
asI48057
(lp961
I20
aI1398852964
asI57581
(lp962
I6
aI1398853730
asI22105
(lp963
I4
aI1398853107
asI40539
(lp964
I12
aI1398853107
asI15964
(lp965
I822
aI1398853085
asI9821
(lp966
I44
aI1398852984
asI58974
(lp967
I204
aI1398853546
asI42591
(lp968
I2
aI1398853317
asI38496
(lp969
I1772
aI1398853528
asI32354
(lp970
I36
aI1398853107
asI11875
(lp971
I4
aI1398853106
asI28260
(lp972
I152
aI1398853531
asI9829
(lp973
I11020
aI1398853800
asI7782
(lp974
I10
aI1398853649
asI28263
(lp975
I16
aI1398853534
asI13489
(lp976
I502
aI1398853385
asI5738
(lp977
I2
aI1398853106
asI46699
(lp978
I4
aI1398853106
asI9836
(lp979
I4
aI1398853396
asI132717
(lp980
I16
aI1398853608
asI9943
(lp981
I912
aI1398853236
asI36277
(lp982
I4
aI1398853107
asI50802
(lp983
I508
aI1398853383
asI44990
(lp984
I4
aI1398853509
asI40569
(lp985
I68
aI1398853085
asI32107
(lp986
I40
aI1398853107
asI38527
(lp987
I306
aI1398853709
asI23511
(lp988
I4
aI1398853106
asI13249
(lp989
I290
aI1398853722
asI42632
(lp990
I8
aI1398853660
asI24202
(lp991
I154
aI1398853174
asI24203
(lp992
I6
aI1398853750
asI34444
(lp993
I34
aI1398853800
asI26253
(lp994
I28
aI1398853107
asI28303
(lp995
I122
aI1398853797
asI1680
(lp996
I38
aI1398853624
asI132376
(lp997
I186
aI1398853628
asI20115
(lp998
I8
aI1398853203
asI24212
(lp999
I56
aI1398853174
asI196664
(lp1000
I2
aI1398853800
asI13977
(lp1001
I126
aI1398853107
asI24218
(lp1002
I1930
aI1398853686
asI132763
(lp1003
I32
aI1398853547
asI36508
(lp1004
I48
aI1398853107
asI54941
(lp1005
I4
aI1398853107
asI28322
(lp1006
I20
aI1398853594
asI7843
(lp1007
I598
aI1398853799
asI40612
(lp1008
I4
aI1398853107
asI45170
(lp1009
I10
aI1398853655
asI38513
(lp1010
I126
aI1398853174
asI132777
(lp1011
I76
aI1398853010
asI12741
(lp1012
I114
aI1398853691
asI9901
(lp1013
I274
aI1398853793
asI11951
(lp1014
I8
aI1398853107
asI22843
(lp1015
I8
aI1398853107
asI18101
(lp1016
I234
aI1398853795
asI31689
(lp1017
I8
aI1398853464
asI22200
(lp1018
I152
aI1398853276
asI23184
(lp1019
I16
aI1398853107
asI26299
(lp1020
I4
aI1398853106
asI132796
(lp1021
I44
aI1398852984
asI44733
(lp1022
I10
aI1398853679
asI57023
(lp1023
I218
aI1398853794
asI59573
(lp1024
I6
aI1398853791
asI262432
(lp1025
I60
aI1398853655
asI46786
(lp1026
I14
aI1398853422
asI199627
(lp1027
I2
aI1398853728
asI48836
(lp1028
I48
aI1398853791
asI1733
(lp1029
I20
aI1398853632
asI32454
(lp1030
I4
aI1398853107
asI46791
(lp1031
I16
aI1398853107
asI40649
(lp1032
I16
aI1398853107
asI9930
(lp1033
I18
aI1398853286
asI54989
(lp1034
I12
aI1398853106
asI61134
(lp1035
I4
aI1398853028
asI57039
(lp1036
I2
aI1398853486
asI46800
(lp1037
I20
aI1398853107
asI42708
(lp1038
I1510
aI1398853781
asI19406
(lp1039
I8
aI1398853106
asI29655
(lp1040
I4
aI1398853509
asI18135
(lp1041
I314
aI1398853716
asI11992
(lp1042
I10
aI1398853776
asI3801
(lp1043
I40
aI1398853107
asI14042
(lp1044
I4
aI1398853106
asI49103
(lp1045
I24
aI1398853788
asI24287
(lp1046
I14
aI1398852972
asI34530
(lp1047
I8
aI1398853695
asI56559
(lp1048
I4
aI1398853790
asI9957
(lp1049
I912
aI1398853236
asI12008
(lp1050
I20
aI1398853331
asI46825
(lp1051
I18
aI1398853236
asI32490
(lp1052
I8
aI1398853107
asI26347
(lp1053
I16
aI1398853107
asI52972
(lp1054
I28
aI1398853568
asI14063
(lp1055
I8
aI1398853107
asI50928
(lp1056
I8
aI1398853800
asI5416
(lp1057
I108
aI1398853800
asI7922
(lp1058
I13666
aI1398853783
asI15657
(lp1059
I124
aI1398853791
asI1785
(lp1060
I122
aI1398853776
asI46844
(lp1061
I100
aI1398853107
asI57085
(lp1062
I76
aI1398853671
asI26367
(lp1063
I1538
aI1398853777
asI15695
(lp1064
I60
aI1398853586
asI20225
(lp1065
I2864
aI1398853800
asI59628
(lp1066
I20
aI1398853790
asI263022
(lp1067
I2
aI1398853439
asI29452
(lp1068
I4
aI1398853106
asI18187
(lp1069
I14
aI1398852982
asI22284
(lp1070
I14
aI1398853649
asI44814
(lp1071
I206
aI1398853010
asI30479
(lp1072
I24
aI1398853106
asI32529
(lp1073
I2
aI1398853013
asI22290
(lp1074
I4
aI1398853106
asI46030
(lp1075
I120
aI1398853174
asI16150
(lp1076
I13480
aI1398853781
asI198569
(lp1077
I234
aI1398853800
asI8700
(lp1078
I6
aI1398853618
asI6539
(lp1079
I50
aI1398853175
asI13801
(lp1080
I4
aI1398853107
asI18207
(lp1081
I584
aI1398853578
asI6245
(lp1082
I12
aI1398853107
asI19419
(lp1083
I4
aI1398853107
asI59172
(lp1084
I4
aI1398853358
asI26405
(lp1085
I4
aI1398853106
asI38193
(lp1086
I226
aI1398853770
asI10026
(lp1087
I382
aI1398853776
asI647
(lp1088
I50
aI1398853107
asI46893
(lp1089
I12
aI1398853106
asI53040
(lp1090
I2558
aI1398853670
asI1842
(lp1091
I30
aI1398853292
asI10036
(lp1092
I912
aI1398853236
asI30517
(lp1093
I70
aI1398853247
asI18747
(lp1094
I8
aI1398853474
asI1851
(lp1095
I4
aI1398853107
asI14140
(lp1096
I4
aI1398853107
asI1853
(lp1097
I40
aI1398853798
asI22335
(lp1098
I352
aI1398853777
asI53056
(lp1099
I568
aI1398853631
asI5953
(lp1100
I32
aI1398853800
asI37433
(lp1101
I152
aI1398853516
asI53062
(lp1102
I192
aI1398853074
asI5089
(lp1103
I70
aI1398853588
asI24392
(lp1104
I124
aI1398852998
asI40778
(lp1105
I4
aI1398853107
asI132066
(lp1106
I16
aI1398853670
asI19907
(lp1107
I4
aI1398853107
asI24399
(lp1108
I178
aI1398853434
asI24400
(lp1109
I40
aI1398853750
asI22354
(lp1110
I4
aI1398853783
asI5972
(lp1111
I92
aI1398853475
asI10069
(lp1112
I12
aI1398853554
asI36696
(lp1113
I20
aI1398853107
asI61273
(lp1114
I140
aI1398853676
asI1290
(lp1115
I4
aI1398853106
asI22363
(lp1116
I8
aI1398853107
asI10077
(lp1117
I4
aI1398853358
asI24416
(lp1118
I22
aI1398853750
asI38753
(lp1119
I614
aI1398853778
asI198498
(lp1120
I48
aI1398853691
asI43323
(lp1121
I4
aI1398853106
asI46950
(lp1122
I4
aI1398853106
asI16231
(lp1123
I12
aI1398853338
asI46952
(lp1124
I4
aI1398853107
asI51050
(lp1125
I2
aI1398853509
asI36715
(lp1126
I4
aI1398853106
asI42861
(lp1127
I8
aI1398853636
asI12142
(lp1128
I4
aI1398853107
asI26479
(lp1129
I92
aI1398853107
asI57201
(lp1130
I92
aI1398853761
asI10098
(lp1131
I60
aI1398853791
asI10099
(lp1132
I76
aI1398853750
asI22388
(lp1133
I30
aI1398853135
asI16245
(lp1134
I754
aI1398853795
asI10102
(lp1135
I4004
aI1398853776
asI53111
(lp1136
I158
aI1398853630
asI17658
(lp1137
I86
aI1398853500
asI40827
(lp1138
I4
aI1398853107
asI30589
(lp1139
I6
aI1398852955
asI38782
(lp1140
I1378
aI1398853396
asI53121
(lp1141
I6
aI1398853013
asI132994
(lp1142
I124
aI1398853565
asI35819
(lp1143
I154
aI1398853686
asI32645
(lp1144
I4
aI1398853107
asI30600
(lp1145
I28
aI1398853107
asI198541
(lp1146
I110
aI1398853001
asI12175
(lp1147
I4
aI1398853107
asI39079
(lp1148
I4
aI1398853800
asI61331
(lp1149
I4
aI1398853106
asI12182
(lp1150
I4
aI1398853758
asI46999
(lp1151
I6
aI1398853638
asI15343
(lp1152
I120
aI1398853655
asI24560
(lp1153
I100
aI1398853769
asI24482
(lp1154
I5522
aI1398853778
asI10148
(lp1155
I40
aI1398853107
asI24485
(lp1156
I370
aI1398853716
asI28582
(lp1157
I152
aI1398853684
asI36849
(lp1158
I28
aI1398853236
asI24489
(lp1159
I22
aI1398852984
asI24490
(lp1160
I4
aI1398852984
asI53163
(lp1161
I14
aI1398853800
asI47020
(lp1162
I12
aI1398853106
asI33778
(lp1163
I260
aI1398853752
asI9885
(lp1164
I28
aI1398853509
asI61362
(lp1165
I32
aI1398853800
asI14259
(lp1166
I26
aI1398853679
asI26548
(lp1167
I20
aI1398853107
asI38217
(lp1168
I14
aI1398853656
asI14265
(lp1169
I12
aI1398853647
asI26554
(lp1170
I10
aI1398853215
asI26558
(lp1171
I4
aI1398853107
asI46263
(lp1172
I4
aI1398853107
asI16322
(lp1173
I116
aI1398853800
asI198595
(lp1174
I20
aI1398853755
asI53238
(lp1175
I264
aI1398853778
asI55240
(lp1176
I4
aI1398853106
asI26615
(lp1177
I116
aI1398853692
asI49100
(lp1178
I132
aI1398853800
asI38861
(lp1179
I484
aI1398853778
asI32719
(lp1180
I138
aI1398853300
asI16338
(lp1181
I6
aI1398853093
asI16339
(lp1182
I12
aI1398853107
asI34772
(lp1183
I64
aI1398853697
asI39246
(lp1184
I376
aI1398853628
asI51158
(lp1185
I28
aI1398853638
asI10199
(lp1186
I168
aI1398853396
asI262914
(lp1187
I378
aI1398853607
asI10201
(lp1188
I88
aI1398852962
asI24538
(lp1189
I2
aI1398853685
asI18395
(lp1190
I26
aI1398853679
asI29690
(lp1191
I154
aI1398853686
asI18398
(lp1192
I6
aI1398853339
asI38880
(lp1193
I898
aI1398853796
asI61410
(lp1194
I38
aI1398853671
asI38883
(lp1195
I4490
aI1398853793
asI133092
(lp1196
I2
aI1398853625
asI24550
(lp1197
I36
aI1398853486
asI8167
(lp1198
I684
aI1398853795
asI10217
(lp1199
I22
aI1398853265
asI6127
(lp1200
I90
aI1398853325
asI22886
(lp1201
I8
aI1398853107
asI6129
(lp1202
I4
aI1398853107
asI61426
(lp1203
I256
aI1398853777
asI27987
(lp1204
I382
aI1398853686
asI55286
(lp1205
I48
aI1398853647
asI57001
(lp1206
I208
aI1398853145
asI26616
(lp1207
I384
aI1398853658
asI55290
(lp1208
I4
aI1398853107
asI51541
(lp1209
I444
aI1398853800
as.